; Function Attrs: mustprogress uwtable
define hidden void @_ZNK19OpenColorIO_v2_5dev35Renderer_ACES_TONESCALE_COMPRESS_205applyEPKvPvl(ptr noundef nonnull align 8 dereferenceable(1628) %0, ptr noundef readonly captures(none) %1, ptr noundef writeonly captures(none) %2, i64 noundef %3) unnamed_addr #11 align 2 {
  %5 = alloca %"struct.std::array", align 4
  %6 = alloca %"struct.std::array", align 4
  %7 = getelementptr inbounds nuw i8, ptr %0, i64 8
  %8 = load i8, ptr %7, align 8, !tbaa !106, !range !98, !noundef !99
  %9 = trunc nuw i8 %8 to i1
  %10 = icmp sgt i64 %3, 0
  br i1 %9, label %11, label %32

11:                                               ; preds = %4
  br i1 %10, label %.lr.ph.i, label %_ZNK19OpenColorIO_v2_5dev35Renderer_ACES_TONESCALE_COMPRESS_203fwdEPKvPvl.exit

.lr.ph.i:                                         ; preds = %11
  %12 = getelementptr inbounds nuw i8, ptr %6, i64 4
  %13 = getelementptr inbounds nuw i8, ptr %6, i64 8
  %14 = getelementptr inbounds nuw i8, ptr %0, i64 12
  %15 = getelementptr inbounds nuw i8, ptr %0, i64 124
  %16 = getelementptr inbounds nuw i8, ptr %0, i64 156
  br label %17

17:                                               ; preds = %17, %.lr.ph.i
  %.019.i = phi ptr [ %1, %.lr.ph.i ], [ %29, %17 ]
  %.01518.i = phi ptr [ %2, %.lr.ph.i ], [ %30, %17 ]
  %.01617.i = phi i64 [ 0, %.lr.ph.i ], [ %31, %17 ]
  call void @llvm.lifetime.start.p0(i64 12, ptr nonnull %6) #28
  %18 = load float, ptr %.019.i, align 4, !tbaa !13
  store float %18, ptr %6, align 4, !tbaa !13
  %19 = getelementptr inbounds nuw i8, ptr %.019.i, i64 4
  %20 = load float, ptr %19, align 4, !tbaa !13
  store float %20, ptr %12, align 4, !tbaa !13
  %21 = getelementptr inbounds nuw i8, ptr %.019.i, i64 8
  %22 = load float, ptr %21, align 4, !tbaa !13
  store float %22, ptr %13, align 4, !tbaa !13
  %23 = call { <2 x float>, float } @_ZN19OpenColorIO_v2_5dev5ACES229tonescale_chroma_compress_fwdERKSt5arrayIfLm3EERKNS0_9JMhParamsERKNS0_15ToneScaleParamsERKNS0_20ChromaCompressParamsE(ptr noundef nonnull align 4 dereferenceable(12) %6, ptr noundef nonnull align 4 dereferenceable(112) %14, ptr noundef nonnull align 4 dereferenceable(32) %15, ptr noundef nonnull align 4 dereferenceable(1472) %16)
  %.fca.0.extract.i = extractvalue { <2 x float>, float } %23, 0
  %.fca.1.extract.i = extractvalue { <2 x float>, float } %23, 1
  call void @llvm.lifetime.end.p0(i64 12, ptr nonnull %6) #28
  %.sroa.0.0.vec.extract.i = extractelement <2 x float> %.fca.0.extract.i, i64 0
  store float %.sroa.0.0.vec.extract.i, ptr %.01518.i, align 4, !tbaa !13
  %.sroa.0.4.vec.extract.i = extractelement <2 x float> %.fca.0.extract.i, i64 1
  %24 = getelementptr inbounds nuw i8, ptr %.01518.i, i64 4
  store float %.sroa.0.4.vec.extract.i, ptr %24, align 4, !tbaa !13
  %25 = getelementptr inbounds nuw i8, ptr %.01518.i, i64 8
  store float %.fca.1.extract.i, ptr %25, align 4, !tbaa !13
  %26 = getelementptr inbounds nuw i8, ptr %.019.i, i64 12
  %27 = load float, ptr %26, align 4, !tbaa !13
  %28 = getelementptr inbounds nuw i8, ptr %.01518.i, i64 12
  store float %27, ptr %28, align 4, !tbaa !13
  %29 = getelementptr inbounds nuw i8, ptr %.019.i, i64 16
  %30 = getelementptr inbounds nuw i8, ptr %.01518.i, i64 16
  %31 = add nuw nsw i64 %.01617.i, 1
  %exitcond.not.i = icmp eq i64 %31, %3
  br i1 %exitcond.not.i, label %_ZNK19OpenColorIO_v2_5dev35Renderer_ACES_TONESCALE_COMPRESS_203fwdEPKvPvl.exit, label %17, !llvm.loop !108

32:                                               ; preds = %4
  br i1 %10, label %.lr.ph.i6, label %_ZNK19OpenColorIO_v2_5dev35Renderer_ACES_TONESCALE_COMPRESS_203fwdEPKvPvl.exit

.lr.ph.i6:                                        ; preds = %32
  %33 = getelementptr inbounds nuw i8, ptr %5, i64 4
  %34 = getelementptr inbounds nuw i8, ptr %5, i64 8
  %35 = getelementptr inbounds nuw i8, ptr %0, i64 12
  %36 = getelementptr inbounds nuw i8, ptr %0, i64 124
  %37 = getelementptr inbounds nuw i8, ptr %0, i64 156
  br label %38

38:                                               ; preds = %38, %.lr.ph.i6
  %.019.i7 = phi ptr [ %1, %.lr.ph.i6 ], [ %50, %38 ]
  %.01518.i8 = phi ptr [ %2, %.lr.ph.i6 ], [ %51, %38 ]
  %.01617.i9 = phi i64 [ 0, %.lr.ph.i6 ], [ %52, %38 ]
  call void @llvm.lifetime.start.p0(i64 12, ptr nonnull %5) #28
  %39 = load float, ptr %.019.i7, align 4, !tbaa !13
  store float %39, ptr %5, align 4, !tbaa !13
  %40 = getelementptr inbounds nuw i8, ptr %.019.i7, i64 4
  %41 = load float, ptr %40, align 4, !tbaa !13
  store float %41, ptr %33, align 4, !tbaa !13
  %42 = getelementptr inbounds nuw i8, ptr %.019.i7, i64 8
  %43 = load float, ptr %42, align 4, !tbaa !13
  store float %43, ptr %34, align 4, !tbaa !13
  %44 = call { <2 x float>, float } @_ZN19OpenColorIO_v2_5dev5ACES229tonescale_chroma_compress_invERKSt5arrayIfLm3EERKNS0_9JMhParamsERKNS0_15ToneScaleParamsERKNS0_20ChromaCompressParamsE(ptr noundef nonnull align 4 dereferenceable(12) %5, ptr noundef nonnull align 4 dereferenceable(112) %35, ptr noundef nonnull align 4 dereferenceable(32) %36, ptr noundef nonnull align 4 dereferenceable(1472) %37)
  %.fca.0.extract.i10 = extractvalue { <2 x float>, float } %44, 0
  %.fca.1.extract.i11 = extractvalue { <2 x float>, float } %44, 1
  call void @llvm.lifetime.end.p0(i64 12, ptr nonnull %5) #28
  %.sroa.0.0.vec.extract.i12 = extractelement <2 x float> %.fca.0.extract.i10, i64 0
  store float %.sroa.0.0.vec.extract.i12, ptr %.01518.i8, align 4, !tbaa !13
  %.sroa.0.4.vec.extract.i13 = extractelement <2 x float> %.fca.0.extract.i10, i64 1
  %45 = getelementptr inbounds nuw i8, ptr %.01518.i8, i64 4
  store float %.sroa.0.4.vec.extract.i13, ptr %45, align 4, !tbaa !13
  %46 = getelementptr inbounds nuw i8, ptr %.01518.i8, i64 8
  store float %.fca.1.extract.i11, ptr %46, align 4, !tbaa !13
  %47 = getelementptr inbounds nuw i8, ptr %.019.i7, i64 12
  %48 = load float, ptr %47, align 4, !tbaa !13
  %49 = getelementptr inbounds nuw i8, ptr %.01518.i8, i64 12
  store float %48, ptr %49, align 4, !tbaa !13
  %50 = getelementptr inbounds nuw i8, ptr %.019.i7, i64 16
  %51 = getelementptr inbounds nuw i8, ptr %.01518.i8, i64 16
  %52 = add nuw nsw i64 %.01617.i9, 1
  %exitcond.not.i14 = icmp eq i64 %52, %3
  br i1 %exitcond.not.i14, label %_ZNK19OpenColorIO_v2_5dev35Renderer_ACES_TONESCALE_COMPRESS_203fwdEPKvPvl.exit, label %38, !llvm.loop !109

_ZNK19OpenColorIO_v2_5dev35Renderer_ACES_TONESCALE_COMPRESS_203fwdEPKvPvl.exit: ; preds = %38, %17, %32, %11
  ret void
}